target datalayout = "e-m:e-p270:32:32-p271:32:32-p272:64:64-i64:64-i128:128-f80:128-n8:16:32:64-S128"
target triple = "x86_64-pc-linux-gnu"

%struct.expert_field = type { i32, i32 }
%struct._packet_info = type { ptr, ptr, i32, i32, %struct.nstime_t, %struct.nstime_t, %struct.nstime_t, i8, ptr, ptr, ptr, ptr, %struct._address, %struct._address, %struct._address, %struct._address, %struct._address, %struct._address, i32, ptr, i8, [3 x i8], %struct.anon, i32, i32, i32, i32, ptr, i8, ptr, ptr, i16, i16, i32, i32, i16, i32, i32, ptr, ptr, ptr, i8, i8, i16, i16, i16, i32, i16, i16, ptr, ptr, ptr, ptr, ptr, i32, i32 }
%struct.nstime_t = type { i64, i32 }
%struct._address = type { i32, i32, ptr, ptr }
%struct.anon = type { i8, [3 x i8] }

@hf_bytes = internal global i32 0, align 4
@hf_cemi_ot = internal global i32 0, align 4
@ei_knxip_error = external global %struct.expert_field, align 4
@.str.337 = private unnamed_addr constant [7 x i8] c" OT=%u\00", align 1
@.str.338 = private unnamed_addr constant [8 x i8] c", OT=%u\00", align 1
@.str.339 = private unnamed_addr constant [14 x i8] c"? Object Type\00", align 1
@.str.340 = private unnamed_addr constant [18 x i8] c"Expected: 2 bytes\00", align 1

; Function Attrs: null_pointer_is_valid sspstrong uwtable
define internal zeroext i16 @dissect_ot(ptr noundef %0, ptr noundef %1, ptr noundef %2, ptr noundef %3, ptr noundef %4, i32 noundef %5, ptr noundef %6) #0 {
  %8 = alloca i16, align 2
  %9 = alloca ptr, align 8
  %10 = alloca ptr, align 8
  %11 = alloca ptr, align 8
  %12 = alloca ptr, align 8
  %13 = alloca ptr, align 8
  %14 = alloca i32, align 4
  %15 = alloca ptr, align 8
  %16 = alloca i32, align 4
  %17 = alloca i16, align 2
  %18 = alloca ptr, align 8
  %19 = alloca i32, align 4
  store ptr %0, ptr %9, align 8
  store ptr %1, ptr %10, align 8
  store ptr %2, ptr %11, align 8
  store ptr %3, ptr %12, align 8
  store ptr %4, ptr %13, align 8
  store i32 %5, ptr %14, align 4
  store ptr %6, ptr %15, align 8
  call void @llvm.lifetime.start.p0(i64 4, ptr %16) #9
  %20 = load ptr, ptr %13, align 8
  %21 = load i32, ptr %20, align 4
  store i32 %21, ptr %16, align 4
  %22 = load i32, ptr %16, align 4
  %23 = add i32 %22, 1
  %24 = load i32, ptr %14, align 4
  %25 = icmp slt i32 %23, %24
  br i1 %25, label %26, label %49

26:                                               ; preds = %7
  call void @llvm.lifetime.start.p0(i64 2, ptr %17) #9
  %27 = load ptr, ptr %9, align 8
  %28 = load i32, ptr %16, align 4
  %29 = call zeroext i16 @tvb_get_ntohs(ptr noundef %27, i32 noundef %28)
  store i16 %29, ptr %17, align 2
  call void @llvm.lifetime.start.p0(i64 8, ptr %18) #9
  %30 = load ptr, ptr %10, align 8
  %31 = getelementptr inbounds nuw %struct._packet_info, ptr %30, i32 0, i32 1
  %32 = load ptr, ptr %31, align 8
  store ptr %32, ptr %18, align 8
  %33 = load ptr, ptr %18, align 8
  %34 = load i16, ptr %17, align 2
  %35 = zext i16 %34 to i32
  call void (ptr, i32, ptr, ...) @col_append_fstr(ptr noundef %33, i32 noundef 25, ptr noundef @.str.337, i32 noundef %35)
  %36 = load ptr, ptr %11, align 8
  %37 = load i16, ptr %17, align 2
  %38 = zext i16 %37 to i32
  call void (ptr, ptr, ...) @proto_item_append_text(ptr noundef %36, ptr noundef @.str.338, i32 noundef %38)
  %39 = load ptr, ptr %12, align 8
  %40 = load i32, ptr @hf_cemi_ot, align 4
  %41 = load ptr, ptr %9, align 8
  %42 = load i32, ptr %16, align 4
  %43 = call ptr @proto_tree_add_item(ptr noundef %39, i32 noundef %40, ptr noundef %41, i32 noundef %42, i32 noundef 2, i32 noundef 0)
  %44 = load i32, ptr %16, align 4
  %45 = add i32 %44, 2
  store i32 %45, ptr %16, align 4
  %46 = load i32, ptr %16, align 4
  %47 = load ptr, ptr %13, align 8
  store i32 %46, ptr %47, align 4
  %48 = load i16, ptr %17, align 2
  store i16 %48, ptr %8, align 2
  store i32 1, ptr %19, align 4
  call void @llvm.lifetime.end.p0(i64 8, ptr %18) #9
  call void @llvm.lifetime.end.p0(i64 2, ptr %17) #9
  br label %68

49:                                               ; preds = %7
  %50 = load ptr, ptr %12, align 8
  %51 = load i32, ptr @hf_bytes, align 4
  %52 = load ptr, ptr %9, align 8
  %53 = load i32, ptr %16, align 4
  %54 = load i32, ptr %14, align 4
  %55 = load i32, ptr %16, align 4
  %56 = sub i32 %54, %55
  %57 = call ptr (ptr, i32, ptr, i32, i32, ptr, ptr, ...) @proto_tree_add_bytes_format(ptr noundef %50, i32 noundef %51, ptr noundef %52, i32 noundef %53, i32 noundef %56, ptr noundef null, ptr noundef @.str.339)
  store ptr %57, ptr %11, align 8
  %58 = load ptr, ptr %10, align 8
  %59 = load ptr, ptr %11, align 8
  %60 = call ptr (ptr, ptr, ptr, ptr, ...) @expert_add_info_format(ptr noundef %58, ptr noundef %59, ptr noundef @ei_knxip_error, ptr noundef @.str.340)
  %61 = load ptr, ptr %15, align 8
  %62 = icmp ne ptr %61, null
  br i1 %62, label %63, label %65

63:                                               ; preds = %49
  %64 = load ptr, ptr %15, align 8
  store i8 1, ptr %64, align 1
  br label %65

65:                                               ; preds = %63, %49
  %66 = load i32, ptr %14, align 4
  %67 = load ptr, ptr %13, align 8
  store i32 %66, ptr %67, align 4
  store i16 0, ptr %8, align 2
  store i32 1, ptr %19, align 4
  br label %68

68:                                               ; preds = %65, %26
  call void @llvm.lifetime.end.p0(i64 4, ptr %16) #9
  %69 = load i16, ptr %8, align 2
  ret i16 %69
}