; Function Attrs: null_pointer_is_valid sspstrong uwtable
define internal fastcc zeroext i16 @dissect_ot(ptr noundef %0, ptr noundef %1, ptr noundef %2, ptr noundef %3, ptr noundef captures(none) %4, i32 noundef range(i32 1, -2147483648) %5, ptr noundef writeonly captures(address_is_null) %6) unnamed_addr #0 {
  %8 = load i32, ptr %4, align 4
  %9 = add i32 %8, 1
  %10 = icmp slt i32 %9, %5
  br i1 %10, label %11, label %19

11:                                               ; preds = %7
  %12 = tail call zeroext i16 @tvb_get_ntohs(ptr noundef %0, i32 noundef %8)
  %13 = getelementptr inbounds nuw i8, ptr %1, i64 8
  %14 = load ptr, ptr %13, align 8
  %15 = zext i16 %12 to i32
  tail call void (ptr, i32, ptr, ...) @col_append_fstr(ptr noundef %14, i32 noundef 25, ptr noundef nonnull @.str.337, i32 noundef %15)
  tail call void (ptr, ptr, ...) @proto_item_append_text(ptr noundef %2, ptr noundef nonnull @.str.338, i32 noundef %15)
  %16 = load i32, ptr @hf_cemi_ot, align 4
  %17 = tail call ptr @proto_tree_add_item(ptr noundef %3, i32 noundef %16, ptr noundef %0, i32 noundef %8, i32 noundef 2, i32 noundef 0)
  %18 = add i32 %8, 2
  br label %25

19:                                               ; preds = %7
  %20 = load i32, ptr @hf_bytes, align 4
  %21 = sub nsw i32 %5, %8
  %22 = tail call ptr (ptr, i32, ptr, i32, i32, ptr, ptr, ...) @proto_tree_add_bytes_format(ptr noundef %3, i32 noundef %20, ptr noundef %0, i32 noundef %8, i32 noundef %21, ptr noundef null, ptr noundef nonnull @.str.339)
  %23 = tail call ptr (ptr, ptr, ptr, ptr, ...) @expert_add_info_format(ptr noundef %1, ptr noundef %22, ptr noundef nonnull @ei_knxip_error, ptr noundef nonnull @.str.340)
  %.not = icmp eq ptr %6, null
  br i1 %.not, label %25, label %24

24:                                               ; preds = %19
  store i8 1, ptr %6, align 1
  br label %25

25:                                               ; preds = %19, %24, %11
  %storemerge = phi i32 [ %18, %11 ], [ %5, %24 ], [ %5, %19 ]
  %.0 = phi i16 [ %12, %11 ], [ 0, %24 ], [ 0, %19 ]
  store i32 %storemerge, ptr %4, align 4
  ret i16 %.0
}